; Function Attrs: mustprogress uwtable
define hidden void @_ZNK3ue217ComponentSequence6acceptERNS_21ConstComponentVisitorE(ptr noundef nonnull align 8 dereferenceable(88) %0, ptr noundef nonnull align 8 dereferenceable(8) %1) unnamed_addr #0 align 2 {
  %3 = load ptr, ptr %1, align 8
  %4 = getelementptr inbounds nuw i8, ptr %3, i64 104
  %5 = load ptr, ptr %4, align 8
  tail call void %5(ptr noundef nonnull align 8 dereferenceable(8) %1, ptr noundef nonnull align 8 dereferenceable(88) %0)
  %6 = getelementptr inbounds nuw i8, ptr %0, i64 16
  %7 = load ptr, ptr %6, align 8
  %8 = getelementptr inbounds nuw i8, ptr %0, i64 24
  %9 = load ptr, ptr %8, align 8
  %.not12 = icmp eq ptr %7, %9
  br i1 %.not12, label %._crit_edge, label %.lr.ph.preheader

.lr.ph.preheader:                                 ; preds = %2
  %10 = load ptr, ptr %7, align 8
  %11 = load ptr, ptr %10, align 8
  %12 = getelementptr inbounds nuw i8, ptr %11, i64 32
  %13 = load ptr, ptr %12, align 8
  tail call void %13(ptr noundef nonnull align 8 dereferenceable(16) %10, ptr noundef nonnull align 8 dereferenceable(8) %1)
  %14 = getelementptr inbounds nuw i8, ptr %7, i64 8
  %.not1114 = icmp eq ptr %14, %9
  br i1 %.not1114, label %._crit_edge, label %.lr.ph

._crit_edge:                                      ; preds = %.lr.ph, %.lr.ph.preheader, %2
  %15 = load ptr, ptr %1, align 8
  %16 = getelementptr inbounds nuw i8, ptr %15, i64 328
  %17 = load ptr, ptr %16, align 8
  tail call void %17(ptr noundef nonnull align 8 dereferenceable(8) %1, ptr noundef nonnull align 8 dereferenceable(88) %0)
  ret void

.lr.ph:                                           ; preds = %.lr.ph.preheader, %.lr.ph
  %18 = phi ptr [ %26, %.lr.ph ], [ %14, %.lr.ph.preheader ]
  %19 = load ptr, ptr %1, align 8
  %20 = getelementptr inbounds nuw i8, ptr %19, i64 216
  %21 = load ptr, ptr %20, align 8
  tail call void %21(ptr noundef nonnull align 8 dereferenceable(8) %1, ptr noundef nonnull align 8 dereferenceable(88) %0)
  %22 = load ptr, ptr %18, align 8
  %23 = load ptr, ptr %22, align 8
  %24 = getelementptr inbounds nuw i8, ptr %23, i64 32
  %25 = load ptr, ptr %24, align 8
  tail call void %25(ptr noundef nonnull align 8 dereferenceable(16) %22, ptr noundef nonnull align 8 dereferenceable(8) %1)
  %26 = getelementptr inbounds nuw i8, ptr %18, i64 8
  %.not11 = icmp eq ptr %26, %9
  br i1 %.not11, label %._crit_edge, label %.lr.ph
}